target datalayout = "e-m:e-p270:32:32-p271:32:32-p272:64:64-i64:64-i128:128-f80:128-n8:16:32:64-S128"
target triple = "x86_64-pc-linux-gnu"

%struct.RString = type { %struct.RBasic, i64, %union.anon }
%struct.RBasic = type { i64, i64 }
%union.anon = type { %struct.anon }
%struct.anon = type { ptr, %union.anon.0 }
%union.anon.0 = type { i64 }
%struct.anon.1 = type { [1 x i8] }

@.str.18 = private unnamed_addr constant [5 x i8] c"year\00", align 1
@.str.63 = private unnamed_addr constant [4 x i8] c"mon\00", align 1
@.str.65 = private unnamed_addr constant [5 x i8] c"mday\00", align 1
@parse_jis_cb.rbimpl_id = internal global i64 0, align 8
@parse_jis_cb.rbimpl_id.67 = internal global i64 0, align 8
@parse_jis_cb.rbimpl_id.68 = internal global i64 0, align 8

; Function Attrs: inlinehint nounwind sspstrong willreturn memory(read) uwtable
define internal i64 @RB_FL_TEST_RAW(i64 noundef %0, i64 noundef %1) #2 {
  %3 = alloca i64, align 8
  %4 = alloca i64, align 8
  store i64 %0, ptr %3, align 8, !tbaa !6
  store i64 %1, ptr %4, align 8, !tbaa !6
  %5 = load i64, ptr %3, align 8, !tbaa !6
  %6 = inttoptr i64 %5 to ptr
  %7 = getelementptr inbounds nuw %struct.RBasic, ptr %6, i32 0, i32 0
  %8 = load i64, ptr %7, align 8, !tbaa !38
  %9 = load i64, ptr %4, align 8, !tbaa !6
  %10 = and i64 %8, %9
  ret i64 %10
}

; Function Attrs: inlinehint nounwind sspstrong willreturn memory(read) uwtable
define internal i64 @RSTRING_LEN(i64 noundef %0) #2 {
  %2 = alloca i64, align 8
  store i64 %0, ptr %2, align 8, !tbaa !6
  %3 = load i64, ptr %2, align 8, !tbaa !6
  %4 = inttoptr i64 %3 to ptr
  %5 = getelementptr inbounds nuw %struct.RString, ptr %4, i32 0, i32 1
  %6 = load i64, ptr %5, align 8, !tbaa !23
  ret i64 %6
}

; Function Attrs: inlinehint nounwind sspstrong willreturn memory(read) uwtable
define internal zeroext i1 @RB_FL_ANY_RAW(i64 noundef %0, i64 noundef %1) #2 {
  %3 = alloca i64, align 8
  %4 = alloca i64, align 8
  store i64 %0, ptr %3, align 8, !tbaa !6
  store i64 %1, ptr %4, align 8, !tbaa !6
  %5 = load i64, ptr %3, align 8, !tbaa !6
  %6 = load i64, ptr %4, align 8, !tbaa !6
  %7 = call i64 @RB_FL_TEST_RAW(i64 noundef %5, i64 noundef %6) #22
  %8 = icmp ne i64 %7, 0
  ret i1 %8
}

; Function Attrs: inlinehint nounwind sspstrong willreturn memory(read) uwtable
define internal i64 @rb_intern_const(ptr noundef nonnull %0) #2 {
  %2 = alloca ptr, align 8
  %3 = alloca i64, align 8
  store ptr %0, ptr %2, align 8, !tbaa !10
  call void @llvm.lifetime.start.p0(i64 8, ptr %3) #21
  %4 = load ptr, ptr %2, align 8, !tbaa !10
  %5 = call i64 @strlen(ptr noundef %4) #22
  store i64 %5, ptr %3, align 8, !tbaa !6
  %6 = load ptr, ptr %2, align 8, !tbaa !10
  %7 = load i64, ptr %3, align 8, !tbaa !6
  %8 = call i64 @rb_intern2(ptr noundef %6, i64 noundef %7)
  call void @llvm.lifetime.end.p0(i64 8, ptr %3) #21
  ret i64 %8
}

; Function Attrs: inlinehint nounwind sspstrong willreturn memory(read, argmem: readwrite) uwtable
define internal void @rbimpl_rstring_getmem(ptr dead_on_unwind noalias writable sret(%struct.RString) align 8 %0, i64 noundef %1) #8 {
  %3 = alloca i64, align 8
  store i64 %1, ptr %3, align 8, !tbaa !6
  %4 = load i64, ptr %3, align 8, !tbaa !6
  %5 = call zeroext i1 @RB_FL_ANY_RAW(i64 noundef %4, i64 noundef 8192) #22
  br i1 %5, label %6, label %9

6:                                                ; preds = %2
  %7 = load i64, ptr %3, align 8, !tbaa !6
  %8 = inttoptr i64 %7 to ptr
  call void @llvm.memcpy.p0.p0.i64(ptr align 8 %0, ptr align 8 %8, i64 40, i1 false), !tbaa.struct !37
  br label %20

9:                                                ; preds = %2
  %10 = load i64, ptr %3, align 8, !tbaa !6
  %11 = call i64 @RSTRING_LEN(i64 noundef %10) #22
  %12 = getelementptr inbounds nuw %struct.RString, ptr %0, i32 0, i32 1
  store i64 %11, ptr %12, align 8, !tbaa !23
  %13 = load i64, ptr %3, align 8, !tbaa !6
  %14 = inttoptr i64 %13 to ptr
  %15 = getelementptr inbounds nuw %struct.RString, ptr %14, i32 0, i32 2
  %16 = getelementptr inbounds nuw %struct.anon.1, ptr %15, i32 0, i32 0
  %17 = getelementptr inbounds [1 x i8], ptr %16, i64 0, i64 0
  %18 = getelementptr inbounds nuw %struct.RString, ptr %0, i32 0, i32 2
  %19 = getelementptr inbounds nuw %struct.anon, ptr %18, i32 0, i32 0
  store ptr %17, ptr %19, align 8, !tbaa !19
  br label %20

20:                                               ; preds = %9, %6
  ret void
}

; Function Attrs: inlinehint nounwind sspstrong willreturn memory(none) uwtable
define internal i64 @RB_INT2FIX(i64 noundef %0) #4 {
  %2 = alloca i64, align 8
  %3 = alloca i64, align 8
  %4 = alloca i64, align 8
  %5 = alloca i64, align 8
  %6 = alloca i64, align 8
  %7 = alloca i64, align 8
  store i64 %0, ptr %2, align 8, !tbaa !6
  call void @llvm.lifetime.start.p0(i64 8, ptr %3) #21
  %8 = load i64, ptr %2, align 8, !tbaa !6
  store i64 %8, ptr %3, align 8, !tbaa !6
  call void @llvm.lifetime.start.p0(i64 8, ptr %4) #21
  %9 = load i64, ptr %3, align 8, !tbaa !6
  %10 = shl i64 %9, 1
  %11 = add i64 %10, 1
  store i64 %11, ptr %4, align 8, !tbaa !6
  call void @llvm.lifetime.start.p0(i64 8, ptr %5) #21
  %12 = load i64, ptr %4, align 8, !tbaa !6
  store i64 %12, ptr %5, align 8, !tbaa !6
  call void @llvm.lifetime.start.p0(i64 8, ptr %6) #21
  %13 = load i64, ptr %5, align 8, !tbaa !6
  store i64 %13, ptr %6, align 8, !tbaa !6
  call void @llvm.lifetime.start.p0(i64 8, ptr %7) #21
  %14 = load i64, ptr %6, align 8, !tbaa !6
  store i64 %14, ptr %7, align 8, !tbaa !6
  %15 = load i64, ptr %7, align 8, !tbaa !6
  call void @llvm.lifetime.end.p0(i64 8, ptr %7) #21
  call void @llvm.lifetime.end.p0(i64 8, ptr %6) #21
  call void @llvm.lifetime.end.p0(i64 8, ptr %5) #21
  call void @llvm.lifetime.end.p0(i64 8, ptr %4) #21
  call void @llvm.lifetime.end.p0(i64 8, ptr %3) #21
  ret i64 %15
}

; Function Attrs: inlinehint nounwind sspstrong memory(argmem: readwrite, inaccessiblemem: readwrite) uwtable
define internal i64 @rbimpl_intern_const(ptr noundef nonnull %0, ptr noundef nonnull %1) #7 {
  %3 = alloca ptr, align 8
  %4 = alloca ptr, align 8
  store ptr %0, ptr %3, align 8, !tbaa !20
  store ptr %1, ptr %4, align 8, !tbaa !10
  br label %5

5:                                                ; preds = %10, %2
  %6 = load ptr, ptr %3, align 8, !tbaa !20
  %7 = load i64, ptr %6, align 8, !tbaa !6
  %8 = icmp ne i64 %7, 0
  %9 = xor i1 %8, true
  br i1 %9, label %10, label %14

10:                                               ; preds = %5
  %11 = load ptr, ptr %4, align 8, !tbaa !10
  %12 = call i64 @rb_intern_const(ptr noundef %11) #22
  %13 = load ptr, ptr %3, align 8, !tbaa !20
  store i64 %12, ptr %13, align 8, !tbaa !6
  br label %5, !llvm.loop !35

14:                                               ; preds = %5
  %15 = load ptr, ptr %3, align 8, !tbaa !20
  %16 = load i64, ptr %15, align 8, !tbaa !6
  ret i64 %16
}

; Function Attrs: nounwind sspstrong uwtable
define internal i32 @gengo(i32 noundef %0) #0 {
  %2 = alloca i32, align 4
  %3 = alloca i32, align 4
  store i32 %0, ptr %2, align 4, !tbaa !13
  call void @llvm.lifetime.start.p0(i64 4, ptr %3) #21
  %4 = load i32, ptr %2, align 4, !tbaa !13
  switch i32 %4, label %10 [
    i32 77, label %5
    i32 109, label %5
    i32 84, label %6
    i32 116, label %6
    i32 83, label %7
    i32 115, label %7
    i32 72, label %8
    i32 104, label %8
    i32 82, label %9
    i32 114, label %9
  ]

5:                                                ; preds = %1, %1
  store i32 1867, ptr %3, align 4, !tbaa !13
  br label %11

6:                                                ; preds = %1, %1
  store i32 1911, ptr %3, align 4, !tbaa !13
  br label %11

7:                                                ; preds = %1, %1
  store i32 1925, ptr %3, align 4, !tbaa !13
  br label %11

8:                                                ; preds = %1, %1
  store i32 1988, ptr %3, align 4, !tbaa !13
  br label %11

9:                                                ; preds = %1, %1
  store i32 2018, ptr %3, align 4, !tbaa !13
  br label %11

10:                                               ; preds = %1
  store i32 0, ptr %3, align 4, !tbaa !13
  br label %11

11:                                               ; preds = %10, %9, %8, %7, %6, %5
  %12 = load i32, ptr %3, align 4, !tbaa !13
  call void @llvm.lifetime.end.p0(i64 4, ptr %3) #21
  ret i32 %12
}

; Function Attrs: inlinehint nounwind sspstrong uwtable
define internal ptr @RSTRING_PTR(i64 noundef %0) #3 {
  %2 = alloca i64, align 8
  %3 = alloca ptr, align 8
  %4 = alloca %struct.RString, align 8
  store i64 %0, ptr %2, align 8, !tbaa !6
  call void @llvm.lifetime.start.p0(i64 8, ptr %3) #21
  %5 = load i64, ptr %2, align 8, !tbaa !6
  call void @rbimpl_rstring_getmem(ptr dead_on_unwind writable sret(%struct.RString) align 8 %4, i64 noundef %5) #24
  %6 = getelementptr inbounds nuw %struct.RString, ptr %4, i32 0, i32 2
  %7 = getelementptr inbounds nuw %struct.anon, ptr %6, i32 0, i32 0
  %8 = load ptr, ptr %7, align 8, !tbaa !19
  store ptr %8, ptr %3, align 8, !tbaa !10
  %9 = load ptr, ptr %3, align 8, !tbaa !10
  call void @llvm.lifetime.end.p0(i64 8, ptr %3) #21
  ret ptr %9
}

; Function Attrs: nounwind sspstrong uwtable
define internal i32 @parse_jis_cb(i64 noundef %0, i64 noundef %1) #0 {
  %3 = alloca i64, align 8
  %4 = alloca i64, align 8
  %5 = alloca i64, align 8
  %6 = alloca i64, align 8
  %7 = alloca i64, align 8
  %8 = alloca i64, align 8
  %9 = alloca i32, align 4
  %10 = alloca i64, align 8
  %11 = alloca i64, align 8
  %12 = alloca i64, align 8
  store i64 %0, ptr %3, align 8, !tbaa !6
  store i64 %1, ptr %4, align 8, !tbaa !6
  call void @llvm.lifetime.start.p0(i64 8, ptr %5) #21
  call void @llvm.lifetime.start.p0(i64 8, ptr %6) #21
  call void @llvm.lifetime.start.p0(i64 8, ptr %7) #21
  call void @llvm.lifetime.start.p0(i64 8, ptr %8) #21
  call void @llvm.lifetime.start.p0(i64 4, ptr %9) #21
  %13 = load i64, ptr %3, align 8, !tbaa !6
  %14 = call i64 @rb_reg_nth_match(i32 noundef 1, i64 noundef %13)
  store i64 %14, ptr %5, align 8, !tbaa !6
  %15 = load i64, ptr %3, align 8, !tbaa !6
  %16 = call i64 @rb_reg_nth_match(i32 noundef 2, i64 noundef %15)
  store i64 %16, ptr %6, align 8, !tbaa !6
  %17 = load i64, ptr %3, align 8, !tbaa !6
  %18 = call i64 @rb_reg_nth_match(i32 noundef 3, i64 noundef %17)
  store i64 %18, ptr %7, align 8, !tbaa !6
  %19 = load i64, ptr %3, align 8, !tbaa !6
  %20 = call i64 @rb_reg_nth_match(i32 noundef 4, i64 noundef %19)
  store i64 %20, ptr %8, align 8, !tbaa !6
  %21 = load i64, ptr %5, align 8, !tbaa !6
  %22 = call ptr @RSTRING_PTR(i64 noundef %21)
  %23 = load i8, ptr %22, align 1, !tbaa !19
  %24 = sext i8 %23 to i32
  %25 = call i32 @gengo(i32 noundef %24)
  store i32 %25, ptr %9, align 4, !tbaa !13
  %26 = load i64, ptr %4, align 8, !tbaa !6
  %27 = call i64 @rbimpl_intern_const(ptr noundef @parse_jis_cb.rbimpl_id, ptr noundef @.str.18) #25
  store i64 %27, ptr %10, align 8, !tbaa !6
  %28 = load i64, ptr %10, align 8, !tbaa !6
  %29 = call i64 @rb_id2sym(i64 noundef %28)
  %30 = load i64, ptr %6, align 8, !tbaa !6
  %31 = call i64 @rb_str_to_inum(i64 noundef %30, i32 noundef 10, i32 noundef 0)
  %32 = load i32, ptr %9, align 4, !tbaa !13
  %33 = sext i32 %32 to i64
  %34 = call i64 @RB_INT2FIX(i64 noundef %33) #23
  %35 = call i64 (i64, i64, i32, ...) @rb_funcall(i64 noundef %31, i64 noundef 43, i32 noundef 1, i64 noundef %34)
  %36 = call i64 @rb_hash_aset(i64 noundef %26, i64 noundef %29, i64 noundef %35)
  %37 = load i64, ptr %4, align 8, !tbaa !6
  %38 = call i64 @rbimpl_intern_const(ptr noundef @parse_jis_cb.rbimpl_id.67, ptr noundef @.str.63) #25
  store i64 %38, ptr %11, align 8, !tbaa !6
  %39 = load i64, ptr %11, align 8, !tbaa !6
  %40 = call i64 @rb_id2sym(i64 noundef %39)
  %41 = load i64, ptr %7, align 8, !tbaa !6
  %42 = call i64 @rb_str_to_inum(i64 noundef %41, i32 noundef 10, i32 noundef 0)
  %43 = call i64 @rb_hash_aset(i64 noundef %37, i64 noundef %40, i64 noundef %42)
  %44 = load i64, ptr %4, align 8, !tbaa !6
  %45 = call i64 @rbimpl_intern_const(ptr noundef @parse_jis_cb.rbimpl_id.68, ptr noundef @.str.65) #25
  store i64 %45, ptr %12, align 8, !tbaa !6
  %46 = load i64, ptr %12, align 8, !tbaa !6
  %47 = call i64 @rb_id2sym(i64 noundef %46)
  %48 = load i64, ptr %8, align 8, !tbaa !6
  %49 = call i64 @rb_str_to_inum(i64 noundef %48, i32 noundef 10, i32 noundef 0)
  %50 = call i64 @rb_hash_aset(i64 noundef %44, i64 noundef %47, i64 noundef %49)
  call void @llvm.lifetime.end.p0(i64 4, ptr %9) #21
  call void @llvm.lifetime.end.p0(i64 8, ptr %8) #21
  call void @llvm.lifetime.end.p0(i64 8, ptr %7) #21
  call void @llvm.lifetime.end.p0(i64 8, ptr %6) #21
  call void @llvm.lifetime.end.p0(i64 8, ptr %5) #21
  ret i32 1
}