; Function Attrs: nounwind sspstrong uwtable
define internal noundef i32 @parse_jis_cb(i64 noundef %0, i64 noundef %1) #0 {
  %3 = tail call i64 @rb_reg_nth_match(i32 noundef 1, i64 noundef %0) #13
  %4 = tail call i64 @rb_reg_nth_match(i32 noundef 2, i64 noundef %0) #13
  %5 = tail call i64 @rb_reg_nth_match(i32 noundef 3, i64 noundef %0) #13
  %6 = tail call i64 @rb_reg_nth_match(i32 noundef 4, i64 noundef %0) #13
  %7 = inttoptr i64 %3 to ptr
  %8 = load i64, ptr %7, align 8, !tbaa !13, !noalias !182
  %9 = and i64 %8, 8192
  %.not.i.i = icmp eq i64 %9, 0
  %10 = getelementptr inbounds nuw i8, ptr %7, i64 24
  br i1 %.not.i.i, label %RSTRING_PTR.exit, label %11

11:                                               ; preds = %2
  %.sroa.2.0.copyload.i = load ptr, ptr %10, align 8
  br label %RSTRING_PTR.exit

RSTRING_PTR.exit:                                 ; preds = %2, %11
  %.sroa.2.0.i = phi ptr [ %.sroa.2.0.copyload.i, %11 ], [ %10, %2 ]
  %12 = load i8, ptr %.sroa.2.0.i, align 1, !tbaa !20
  switch i8 %12, label %17 [
    i8 77, label %gengo.exit
    i8 109, label %gengo.exit
    i8 84, label %13
    i8 116, label %13
    i8 83, label %14
    i8 115, label %14
    i8 72, label %15
    i8 104, label %15
    i8 82, label %16
    i8 114, label %16
  ]

13:                                               ; preds = %RSTRING_PTR.exit, %RSTRING_PTR.exit
  br label %gengo.exit

14:                                               ; preds = %RSTRING_PTR.exit, %RSTRING_PTR.exit
  br label %gengo.exit

15:                                               ; preds = %RSTRING_PTR.exit, %RSTRING_PTR.exit
  br label %gengo.exit

16:                                               ; preds = %RSTRING_PTR.exit, %RSTRING_PTR.exit
  br label %gengo.exit

17:                                               ; preds = %RSTRING_PTR.exit
  br label %gengo.exit

gengo.exit:                                       ; preds = %RSTRING_PTR.exit, %RSTRING_PTR.exit, %13, %14, %15, %16, %17
  %.0.i = phi i64 [ 1, %17 ], [ 4037, %16 ], [ 3977, %15 ], [ 3851, %14 ], [ 3823, %13 ], [ 3735, %RSTRING_PTR.exit ], [ 3735, %RSTRING_PTR.exit ]
  %.pr.i = load i64, ptr @parse_jis_cb.rbimpl_id, align 8, !tbaa !6
  %.not4.i = icmp eq i64 %.pr.i, 0
  br i1 %.not4.i, label %.lr.ph.i, label %rbimpl_intern_const.exit

.lr.ph.i:                                         ; preds = %gengo.exit, %.lr.ph.i
  %18 = tail call i64 @rb_intern2(ptr noundef nonnull @.str.18, i64 noundef 4) #13
  store i64 %18, ptr @parse_jis_cb.rbimpl_id, align 8, !tbaa !6
  %.not.i = icmp eq i64 %18, 0
  br i1 %.not.i, label %.lr.ph.i, label %rbimpl_intern_const.exit, !llvm.loop !36

rbimpl_intern_const.exit:                         ; preds = %.lr.ph.i, %gengo.exit
  %.lcssa.i = phi i64 [ %.pr.i, %gengo.exit ], [ %18, %.lr.ph.i ]
  %19 = tail call i64 @rb_id2sym(i64 noundef %.lcssa.i) #13
  %20 = tail call i64 @rb_str_to_inum(i64 noundef %4, i32 noundef 10, i32 noundef 0) #13
  %21 = tail call i64 (i64, i64, i32, ...) @rb_funcall(i64 noundef %20, i64 noundef 43, i32 noundef 1, i64 noundef %.0.i) #13
  %22 = tail call i64 @rb_hash_aset(i64 noundef %1, i64 noundef %19, i64 noundef %21) #13
  %.pr.i15 = load i64, ptr @parse_jis_cb.rbimpl_id.67, align 8, !tbaa !6
  %.not4.i16 = icmp eq i64 %.pr.i15, 0
  br i1 %.not4.i16, label %.lr.ph.i18, label %rbimpl_intern_const.exit20

.lr.ph.i18:                                       ; preds = %rbimpl_intern_const.exit, %.lr.ph.i18
  %23 = tail call i64 @rb_intern2(ptr noundef nonnull @.str.63, i64 noundef 3) #13
  store i64 %23, ptr @parse_jis_cb.rbimpl_id.67, align 8, !tbaa !6
  %.not.i19 = icmp eq i64 %23, 0
  br i1 %.not.i19, label %.lr.ph.i18, label %rbimpl_intern_const.exit20, !llvm.loop !36

rbimpl_intern_const.exit20:                       ; preds = %.lr.ph.i18, %rbimpl_intern_const.exit
  %.lcssa.i17 = phi i64 [ %.pr.i15, %rbimpl_intern_const.exit ], [ %23, %.lr.ph.i18 ]
  %24 = tail call i64 @rb_id2sym(i64 noundef %.lcssa.i17) #13
  %25 = tail call i64 @rb_str_to_inum(i64 noundef %5, i32 noundef 10, i32 noundef 0) #13
  %26 = tail call i64 @rb_hash_aset(i64 noundef %1, i64 noundef %24, i64 noundef %25) #13
  %.pr.i21 = load i64, ptr @parse_jis_cb.rbimpl_id.68, align 8, !tbaa !6
  %.not4.i22 = icmp eq i64 %.pr.i21, 0
  br i1 %.not4.i22, label %.lr.ph.i24, label %rbimpl_intern_const.exit26

.lr.ph.i24:                                       ; preds = %rbimpl_intern_const.exit20, %.lr.ph.i24
  %27 = tail call i64 @rb_intern2(ptr noundef nonnull @.str.65, i64 noundef 4) #13
  store i64 %27, ptr @parse_jis_cb.rbimpl_id.68, align 8, !tbaa !6
  %.not.i25 = icmp eq i64 %27, 0
  br i1 %.not.i25, label %.lr.ph.i24, label %rbimpl_intern_const.exit26, !llvm.loop !36

rbimpl_intern_const.exit26:                       ; preds = %.lr.ph.i24, %rbimpl_intern_const.exit20
  %.lcssa.i23 = phi i64 [ %.pr.i21, %rbimpl_intern_const.exit20 ], [ %27, %.lr.ph.i24 ]
  %28 = tail call i64 @rb_id2sym(i64 noundef %.lcssa.i23) #13
  %29 = tail call i64 @rb_str_to_inum(i64 noundef %6, i32 noundef 10, i32 noundef 0) #13
  %30 = tail call i64 @rb_hash_aset(i64 noundef %1, i64 noundef %28, i64 noundef %29) #13
  ret i32 1
}